; Function Attrs: mustprogress uwtable
define noundef zeroext i1 @_ZN2cv12can_describeERKSt6vectorINS_4util7variantIJNS1_9monostateENS_8GMatDescENS_11GScalarDescENS_10GArrayDescENS_11GOpaqueDescENS_10GFrameDescEEEESaIS9_EERKS0_INS_7GRunArgESaISE_EE(ptr nocapture noundef nonnull readonly align 8 dereferenceable(24) %0, ptr nocapture noundef nonnull readonly align 8 dereferenceable(24) %1) local_unnamed_addr #3 {
  %3 = getelementptr inbounds i8, ptr %0, i64 8
  %4 = load ptr, ptr %3, align 8
  %5 = load ptr, ptr %0, align 8
  %6 = ptrtoint ptr %4 to i64
  %7 = ptrtoint ptr %5 to i64
  %8 = sub i64 %6, %7
  %9 = sdiv exact i64 %8, 56
  %10 = getelementptr inbounds i8, ptr %1, i64 8
  %11 = load ptr, ptr %10, align 8
  %12 = load ptr, ptr %1, align 8
  %13 = ptrtoint ptr %11 to i64
  %14 = ptrtoint ptr %12 to i64
  %15 = sub i64 %13, %14
  %16 = sdiv exact i64 %15, 160
  %17 = icmp eq i64 %9, %16
  br i1 %17, label %18, label %"_ZSt5equalIN9__gnu_cxx17__normal_iteratorIPKN2cv4util7variantIJNS3_9monostateENS2_8GMatDescENS2_11GScalarDescENS2_10GArrayDescENS2_11GOpaqueDescENS2_10GFrameDescEEEESt6vectorISB_SaISB_EEEENS1_IPKNS2_7GRunArgESE_ISI_SaISI_EEEEZNS2_12can_describeERKSG_RKSM_E3$_0EbT_ST_T0_T1_.exit"

18:                                               ; preds = %2
  %.not6.i = icmp eq ptr %5, %4
  br i1 %.not6.i, label %"_ZSt5equalIN9__gnu_cxx17__normal_iteratorIPKN2cv4util7variantIJNS3_9monostateENS2_8GMatDescENS2_11GScalarDescENS2_10GArrayDescENS2_11GOpaqueDescENS2_10GFrameDescEEEESt6vectorISB_SaISB_EEEENS1_IPKNS2_7GRunArgESE_ISI_SaISI_EEEEZNS2_12can_describeERKSG_RKSM_E3$_0EbT_ST_T0_T1_.exit", label %.lr.ph.i

.lr.ph.i:                                         ; preds = %18, %.lr.ph.i
  %.sroa.0.08.i = phi ptr [ %21, %.lr.ph.i ], [ %12, %18 ]
  %.sroa.03.07.i = phi ptr [ %20, %.lr.ph.i ], [ %5, %18 ]
  %19 = tail call noundef zeroext i1 @_ZN2cv12can_describeERKNS_4util7variantIJNS0_9monostateENS_8GMatDescENS_11GScalarDescENS_10GArrayDescENS_11GOpaqueDescENS_10GFrameDescEEEERKNS_7GRunArgE(ptr noundef nonnull align 8 dereferenceable(56) %.sroa.03.07.i, ptr noundef nonnull align 8 dereferenceable(160) %.sroa.0.08.i)
  %20 = getelementptr inbounds i8, ptr %.sroa.03.07.i, i64 56
  %21 = getelementptr inbounds i8, ptr %.sroa.0.08.i, i64 160
  %.not.i = icmp ne ptr %20, %4
  %or.cond.not = select i1 %19, i1 %.not.i, i1 false
  br i1 %or.cond.not, label %.lr.ph.i, label %"_ZSt5equalIN9__gnu_cxx17__normal_iteratorIPKN2cv4util7variantIJNS3_9monostateENS2_8GMatDescENS2_11GScalarDescENS2_10GArrayDescENS2_11GOpaqueDescENS2_10GFrameDescEEEESt6vectorISB_SaISB_EEEENS1_IPKNS2_7GRunArgESE_ISI_SaISI_EEEEZNS2_12can_describeERKSG_RKSM_E3$_0EbT_ST_T0_T1_.exit", !llvm.loop !11

"_ZSt5equalIN9__gnu_cxx17__normal_iteratorIPKN2cv4util7variantIJNS3_9monostateENS2_8GMatDescENS2_11GScalarDescENS2_10GArrayDescENS2_11GOpaqueDescENS2_10GFrameDescEEEESt6vectorISB_SaISB_EEEENS1_IPKNS2_7GRunArgESE_ISI_SaISI_EEEEZNS2_12can_describeERKSG_RKSM_E3$_0EbT_ST_T0_T1_.exit": ; preds = %.lr.ph.i, %18, %2
  %22 = phi i1 [ false, %2 ], [ true, %18 ], [ %19, %.lr.ph.i ]
  ret i1 %22
}